target datalayout = "e-m:e-p270:32:32-p271:32:32-p272:64:64-i64:64-i128:128-f80:128-n8:16:32:64-S128"
target triple = "x86_64-unknown-linux-gnu"

%class.ptr_vector = type { %class.vector }
%class.vector = type { ptr }
%class.svector = type { %class.vector.0 }
%class.vector.0 = type { ptr }
%"class.smt::theory" = type <{ ptr, i32, [4 x i8], ptr, ptr, %class.ptr_vector, %class.svector, i32, i8, [3 x i8] }>
%class.parameter = type { %"class.std::variant" }
%"class.std::variant" = type { %"struct.std::__detail::__variant::_Variant_base.base", [7 x i8] }
%"struct.std::__detail::__variant::_Variant_base.base" = type { %"struct.std::__detail::__variant::_Move_assign_base.base" }
%"struct.std::__detail::__variant::_Move_assign_base.base" = type { %"struct.std::__detail::__variant::_Copy_assign_base.base" }
%"struct.std::__detail::__variant::_Copy_assign_base.base" = type { %"struct.std::__detail::__variant::_Move_ctor_base.base" }
%"struct.std::__detail::__variant::_Move_ctor_base.base" = type { %"struct.std::__detail::__variant::_Copy_ctor_base.base" }
%"struct.std::__detail::__variant::_Copy_ctor_base.base" = type { %"struct.std::__detail::__variant::_Variant_storage.base" }
%"struct.std::__detail::__variant::_Variant_storage.base" = type <{ %"union.std::__detail::__variant::_Variadic_union", i8 }>
%"union.std::__detail::__variant::_Variadic_union" = type { %"union.std::__detail::__variant::_Variadic_union.311" }
%"union.std::__detail::__variant::_Variadic_union.311" = type { %"struct.std::__detail::__variant::_Uninitialized.312" }
%"struct.std::__detail::__variant::_Uninitialized.312" = type { ptr }
%"struct.std::__detail::__variant::_Variant_storage" = type <{ %"union.std::__detail::__variant::_Variadic_union", i8, [7 x i8] }>
%"struct.std::__detail::__variant::_Uninitialized" = type { i32 }

; Function Attrs: mustprogress nounwind uwtable
define linkonce_odr hidden void @_ZNSt8__detail9__variant14_UninitializedIiLb1EEC2IJiEEESt16in_place_index_tILm0EEDpOT_(ptr noundef nonnull align 4 dereferenceable(4) %this, ptr noundef nonnull align 4 dereferenceable(4) %__args) unnamed_addr #4 comdat align 2 {
entry:
  %this.addr = alloca ptr, align 8
  %__args.addr = alloca ptr, align 8
  store ptr %this, ptr %this.addr, align 8
  store ptr %__args, ptr %__args.addr, align 8
  %this1 = load ptr, ptr %this.addr, align 8
  %_M_storage = getelementptr inbounds %"struct.std::__detail::__variant::_Uninitialized", ptr %this1, i32 0, i32 0
  %0 = load ptr, ptr %__args.addr, align 8
  %1 = load i32, ptr %0, align 4
  store i32 %1, ptr %_M_storage, align 4
  ret void
}

; Function Attrs: mustprogress uwtable
define linkonce_odr hidden void @_ZNSt8__detail9__variant15_Variadic_unionIJiP3ast6symbolP7zstringP8rationaldjEEC2IJiEEESt16in_place_index_tILm0EEDpOT_(ptr noundef nonnull align 8 dereferenceable(8) %this, ptr noundef nonnull align 4 dereferenceable(4) %__args) unnamed_addr #5 comdat align 2 {
entry:
  %this.addr = alloca ptr, align 8
  %__args.addr = alloca ptr, align 8
  store ptr %this, ptr %this.addr, align 8
  store ptr %__args, ptr %__args.addr, align 8
  %this1 = load ptr, ptr %this.addr, align 8
  %0 = load ptr, ptr %__args.addr, align 8
  call void @_ZNSt8__detail9__variant14_UninitializedIiLb1EEC2IJiEEESt16in_place_index_tILm0EEDpOT_(ptr noundef nonnull align 4 dereferenceable(4) %this1, ptr noundef nonnull align 4 dereferenceable(4) %0)
  ret void
}

; Function Attrs: mustprogress uwtable
define linkonce_odr hidden void @_ZNSt8__detail9__variant16_Variant_storageILb1EJiP3ast6symbolP7zstringP8rationaldjEEC2ILm0EJiEEESt16in_place_index_tIXT_EEDpOT0_(ptr noundef nonnull align 8 dereferenceable(9) %this, ptr noundef nonnull align 4 dereferenceable(4) %__args) unnamed_addr #5 comdat align 2 {
entry:
  %this.addr = alloca ptr, align 8
  %__args.addr = alloca ptr, align 8
  store ptr %this, ptr %this.addr, align 8
  store ptr %__args, ptr %__args.addr, align 8
  %this1 = load ptr, ptr %this.addr, align 8
  %_M_u = getelementptr inbounds %"struct.std::__detail::__variant::_Variant_storage", ptr %this1, i32 0, i32 0
  %0 = load ptr, ptr %__args.addr, align 8
  call void @_ZNSt8__detail9__variant15_Variadic_unionIJiP3ast6symbolP7zstringP8rationaldjEEC2IJiEEESt16in_place_index_tILm0EEDpOT_(ptr noundef nonnull align 8 dereferenceable(8) %_M_u, ptr noundef nonnull align 4 dereferenceable(4) %0)
  %_M_index = getelementptr inbounds %"struct.std::__detail::__variant::_Variant_storage", ptr %this1, i32 0, i32 1
  store i8 0, ptr %_M_index, align 8
  ret void
}

; Function Attrs: mustprogress uwtable
define linkonce_odr hidden void @_ZNSt8__detail9__variant15_Copy_ctor_baseILb1EJiP3ast6symbolP7zstringP8rationaldjEECI2NS0_16_Variant_storageILb1EJiS3_S4_S6_S8_djEEEILm0EJiEEESt16in_place_index_tIXT_EEDpOT0_(ptr noundef nonnull align 8 dereferenceable(9) %this, ptr noundef nonnull align 4 dereferenceable(4) %0) unnamed_addr #5 comdat align 2 {
entry:
  %this.addr = alloca ptr, align 8
  %.addr = alloca ptr, align 8
  store ptr %this, ptr %this.addr, align 8
  store ptr %0, ptr %.addr, align 8
  %this1 = load ptr, ptr %this.addr, align 8
  %1 = load ptr, ptr %.addr, align 8
  call void @_ZNSt8__detail9__variant16_Variant_storageILb1EJiP3ast6symbolP7zstringP8rationaldjEEC2ILm0EJiEEESt16in_place_index_tIXT_EEDpOT0_(ptr noundef nonnull align 8 dereferenceable(9) %this1, ptr noundef nonnull align 4 dereferenceable(4) %1)
  ret void
}

; Function Attrs: mustprogress uwtable
define linkonce_odr hidden void @_ZNSt8__detail9__variant15_Move_ctor_baseILb1EJiP3ast6symbolP7zstringP8rationaldjEECI2NS0_16_Variant_storageILb1EJiS3_S4_S6_S8_djEEEILm0EJiEEESt16in_place_index_tIXT_EEDpOT0_(ptr noundef nonnull align 8 dereferenceable(9) %this, ptr noundef nonnull align 4 dereferenceable(4) %0) unnamed_addr #5 comdat align 2 {
entry:
  %this.addr = alloca ptr, align 8
  %.addr = alloca ptr, align 8
  store ptr %this, ptr %this.addr, align 8
  store ptr %0, ptr %.addr, align 8
  %this1 = load ptr, ptr %this.addr, align 8
  %1 = load ptr, ptr %.addr, align 8
  call void @_ZNSt8__detail9__variant15_Copy_ctor_baseILb1EJiP3ast6symbolP7zstringP8rationaldjEECI2NS0_16_Variant_storageILb1EJiS3_S4_S6_S8_djEEEILm0EJiEEESt16in_place_index_tIXT_EEDpOT0_(ptr noundef nonnull align 8 dereferenceable(9) %this1, ptr noundef nonnull align 4 dereferenceable(4) %1)
  ret void
}

; Function Attrs: mustprogress uwtable
define linkonce_odr hidden void @_ZNSt8__detail9__variant17_Copy_assign_baseILb1EJiP3ast6symbolP7zstringP8rationaldjEECI2NS0_16_Variant_storageILb1EJiS3_S4_S6_S8_djEEEILm0EJiEEESt16in_place_index_tIXT_EEDpOT0_(ptr noundef nonnull align 8 dereferenceable(9) %this, ptr noundef nonnull align 4 dereferenceable(4) %0) unnamed_addr #5 comdat align 2 {
entry:
  %this.addr = alloca ptr, align 8
  %.addr = alloca ptr, align 8
  store ptr %this, ptr %this.addr, align 8
  store ptr %0, ptr %.addr, align 8
  %this1 = load ptr, ptr %this.addr, align 8
  %1 = load ptr, ptr %.addr, align 8
  call void @_ZNSt8__detail9__variant15_Move_ctor_baseILb1EJiP3ast6symbolP7zstringP8rationaldjEECI2NS0_16_Variant_storageILb1EJiS3_S4_S6_S8_djEEEILm0EJiEEESt16in_place_index_tIXT_EEDpOT0_(ptr noundef nonnull align 8 dereferenceable(9) %this1, ptr noundef nonnull align 4 dereferenceable(4) %1)
  ret void
}

; Function Attrs: mustprogress uwtable
define linkonce_odr hidden void @_ZNSt8__detail9__variant17_Move_assign_baseILb1EJiP3ast6symbolP7zstringP8rationaldjEECI2NS0_16_Variant_storageILb1EJiS3_S4_S6_S8_djEEEILm0EJiEEESt16in_place_index_tIXT_EEDpOT0_(ptr noundef nonnull align 8 dereferenceable(9) %this, ptr noundef nonnull align 4 dereferenceable(4) %0) unnamed_addr #5 comdat align 2 {
entry:
  %this.addr = alloca ptr, align 8
  %.addr = alloca ptr, align 8
  store ptr %this, ptr %this.addr, align 8
  store ptr %0, ptr %.addr, align 8
  %this1 = load ptr, ptr %this.addr, align 8
  %1 = load ptr, ptr %.addr, align 8
  call void @_ZNSt8__detail9__variant17_Copy_assign_baseILb1EJiP3ast6symbolP7zstringP8rationaldjEECI2NS0_16_Variant_storageILb1EJiS3_S4_S6_S8_djEEEILm0EJiEEESt16in_place_index_tIXT_EEDpOT0_(ptr noundef nonnull align 8 dereferenceable(9) %this1, ptr noundef nonnull align 4 dereferenceable(4) %1)
  ret void
}

; Function Attrs: mustprogress nounwind uwtable
define linkonce_odr hidden void @_ZNSt27_Enable_default_constructorILb1ESt7variantIJiP3ast6symbolP7zstringP8rationaldjEEEC2ESt31_Enable_default_constructor_tag(ptr noundef nonnull align 1 dereferenceable(1) %this) unnamed_addr #4 comdat align 2 {
entry:
  %this.addr = alloca ptr, align 8
  store ptr %this, ptr %this.addr, align 8
  ret void
}

; Function Attrs: mustprogress uwtable
define linkonce_odr hidden void @_ZNSt8__detail9__variant13_Variant_baseIJiP3ast6symbolP7zstringP8rationaldjEEC2ILm0EJiEEESt16in_place_index_tIXT_EEDpOT0_(ptr noundef nonnull align 8 dereferenceable(9) %this, ptr noundef nonnull align 4 dereferenceable(4) %__args) unnamed_addr #5 comdat align 2 {
entry:
  %this.addr = alloca ptr, align 8
  %__args.addr = alloca ptr, align 8
  store ptr %this, ptr %this.addr, align 8
  store ptr %__args, ptr %__args.addr, align 8
  %this1 = load ptr, ptr %this.addr, align 8
  %0 = load ptr, ptr %__args.addr, align 8
  call void @_ZNSt8__detail9__variant17_Move_assign_baseILb1EJiP3ast6symbolP7zstringP8rationaldjEECI2NS0_16_Variant_storageILb1EJiS3_S4_S6_S8_djEEEILm0EJiEEESt16in_place_index_tIXT_EEDpOT0_(ptr noundef nonnull align 8 dereferenceable(9) %this1, ptr noundef nonnull align 4 dereferenceable(4) %0)
  ret void
}

; Function Attrs: noreturn nounwind uwtable
define linkonce_odr hidden void @__clang_call_terminate(ptr noundef %0) #9 comdat {
  %2 = call ptr @__cxa_begin_catch(ptr %0) #3
  call void @_ZSt9terminatev() #16
  unreachable
}

; Function Attrs: mustprogress uwtable
define linkonce_odr hidden void @_ZNSt7variantIJiP3ast6symbolP7zstringP8rationaldjEEC2ILm0EJiEivEESt16in_place_index_tIXT_EEDpOT0_(ptr noundef nonnull align 8 dereferenceable(9) %this, ptr noundef nonnull align 4 dereferenceable(4) %__args) unnamed_addr #5 comdat align 2 {
entry:
  %this.addr = alloca ptr, align 8
  %__args.addr = alloca ptr, align 8
  store ptr %this, ptr %this.addr, align 8
  store ptr %__args, ptr %__args.addr, align 8
  %this1 = load ptr, ptr %this.addr, align 8
  %0 = load ptr, ptr %__args.addr, align 8
  call void @_ZNSt8__detail9__variant13_Variant_baseIJiP3ast6symbolP7zstringP8rationaldjEEC2ILm0EJiEEESt16in_place_index_tIXT_EEDpOT0_(ptr noundef nonnull align 8 dereferenceable(9) %this1, ptr noundef nonnull align 4 dereferenceable(4) %0)
  call void @_ZNSt27_Enable_default_constructorILb1ESt7variantIJiP3ast6symbolP7zstringP8rationaldjEEEC2ESt31_Enable_default_constructor_tag(ptr noundef nonnull align 1 dereferenceable(1) %this1)
  ret void
}

; Function Attrs: mustprogress nounwind uwtable
define linkonce_odr hidden void @_ZNSt7variantIJiP3ast6symbolP7zstringP8rationaldjEEC2IivvivEEOT_(ptr noundef nonnull align 8 dereferenceable(9) %this, ptr noundef nonnull align 4 dereferenceable(4) %__t) unnamed_addr #4 comdat align 2 personality ptr @__gxx_personality_v0 {
entry:
  %this.addr = alloca ptr, align 8
  %__t.addr = alloca ptr, align 8
  store ptr %this, ptr %this.addr, align 8
  store ptr %__t, ptr %__t.addr, align 8
  %this1 = load ptr, ptr %this.addr, align 8
  %0 = load ptr, ptr %__t.addr, align 8
  invoke void @_ZNSt7variantIJiP3ast6symbolP7zstringP8rationaldjEEC2ILm0EJiEivEESt16in_place_index_tIXT_EEDpOT0_(ptr noundef nonnull align 8 dereferenceable(9) %this1, ptr noundef nonnull align 4 dereferenceable(4) %0)
          to label %invoke.cont unwind label %terminate.lpad

invoke.cont:                                      ; preds = %entry
  ret void

terminate.lpad:                                   ; preds = %entry
  %1 = landingpad { ptr, i32 }
          catch ptr null
  %2 = extractvalue { ptr, i32 } %1, 0
  call void @__clang_call_terminate(ptr %2) #16
  unreachable
}

; Function Attrs: mustprogress nounwind uwtable
define linkonce_odr hidden noundef i32 @_ZNK3smt6theory6get_idEv(ptr noundef nonnull align 8 dereferenceable(53) %this) #4 comdat align 2 {
entry:
  %this.addr = alloca ptr, align 8
  store ptr %this, ptr %this.addr, align 8
  %this1 = load ptr, ptr %this.addr, align 8
  %m_id = getelementptr inbounds %"class.smt::theory", ptr %this1, i32 0, i32 1
  %0 = load i32, ptr %m_id, align 8
  ret i32 %0
}

; Function Attrs: mustprogress nounwind uwtable
define linkonce_odr hidden noundef nonnull align 8 dereferenceable(976) ptr @_ZNK3smt6theory11get_managerEv(ptr noundef nonnull align 8 dereferenceable(53) %this) #4 comdat align 2 {
entry:
  %this.addr = alloca ptr, align 8
  store ptr %this, ptr %this.addr, align 8
  %this1 = load ptr, ptr %this.addr, align 8
  %m = getelementptr inbounds %"class.smt::theory", ptr %this1, i32 0, i32 4
  %0 = load ptr, ptr %m, align 8
  ret ptr %0
}

; Function Attrs: mustprogress nounwind uwtable
define linkonce_odr hidden void @_ZN9parameterC2Ej(ptr noundef nonnull align 8 dereferenceable(16) %this, i32 noundef %val) unnamed_addr #4 comdat align 2 {
entry:
  %this.addr = alloca ptr, align 8
  %val.addr = alloca i32, align 4
  %ref.tmp = alloca i32, align 4
  store ptr %this, ptr %this.addr, align 8
  store i32 %val, ptr %val.addr, align 4
  %this1 = load ptr, ptr %this.addr, align 8
  %m_val = getelementptr inbounds %class.parameter, ptr %this1, i32 0, i32 0
  %0 = load i32, ptr %val.addr, align 4
  store i32 %0, ptr %ref.tmp, align 4
  call void @_ZNSt7variantIJiP3ast6symbolP7zstringP8rationaldjEEC2IivvivEEOT_(ptr noundef nonnull align 8 dereferenceable(9) %m_val, ptr noundef nonnull align 4 dereferenceable(4) %ref.tmp) #3
  ret void
}

; Function Attrs: mustprogress uwtable
define hidden noundef ptr @_ZN3smt9theory_bv11mk_bit2boolEP3appj(ptr noundef nonnull align 8 dereferenceable(1048) %this, ptr noundef %bv, i32 noundef %idx) #5 align 2 personality ptr @__gxx_personality_v0 {
entry:
  %this.addr = alloca ptr, align 8
  %bv.addr = alloca ptr, align 8
  %idx.addr = alloca i32, align 4
  %p = alloca %class.parameter, align 8
  %args = alloca [1 x ptr], align 8
  %exn.slot = alloca ptr, align 8
  %ehselector.slot = alloca i32, align 4
  store ptr %this, ptr %this.addr, align 8
  store ptr %bv, ptr %bv.addr, align 8
  store i32 %idx, ptr %idx.addr, align 4
  %this1 = load ptr, ptr %this.addr, align 8
  %0 = load i32, ptr %idx.addr, align 4
  call void @_ZN9parameterC2Ej(ptr noundef nonnull align 8 dereferenceable(16) %p, i32 noundef %0)
  %arrayinit.begin = getelementptr inbounds [1 x ptr], ptr %args, i64 0, i64 0
  %1 = load ptr, ptr %bv.addr, align 8
  store ptr %1, ptr %arrayinit.begin, align 8
  %call = invoke noundef nonnull align 8 dereferenceable(976) ptr @_ZNK3smt6theory11get_managerEv(ptr noundef nonnull align 8 dereferenceable(53) %this1)
          to label %invoke.cont unwind label %lpad

invoke.cont:                                      ; preds = %entry
  %call3 = invoke noundef i32 @_ZNK3smt6theory6get_idEv(ptr noundef nonnull align 8 dereferenceable(53) %this1)
          to label %invoke.cont2 unwind label %lpad

invoke.cont2:                                     ; preds = %invoke.cont
  %arraydecay = getelementptr inbounds [1 x ptr], ptr %args, i64 0, i64 0
  %call5 = invoke noundef ptr @_ZN11ast_manager6mk_appEiijPK9parameterjPKP4exprP4sort(ptr noundef nonnull align 8 dereferenceable(976) %call, i32 noundef %call3, i32 noundef 63, i32 noundef 1, ptr noundef %p, i32 noundef 1, ptr noundef %arraydecay, ptr noundef null)
          to label %invoke.cont4 unwind label %lpad

invoke.cont4:                                     ; preds = %invoke.cont2
  call void @_ZN9parameterD1Ev(ptr noundef nonnull align 8 dereferenceable(16) %p) #3
  ret ptr %call5

lpad:                                             ; preds = %invoke.cont2, %invoke.cont, %entry
  %2 = landingpad { ptr, i32 }
          cleanup
  %3 = extractvalue { ptr, i32 } %2, 0
  store ptr %3, ptr %exn.slot, align 8
  %4 = extractvalue { ptr, i32 } %2, 1
  store i32 %4, ptr %ehselector.slot, align 4
  call void @_ZN9parameterD1Ev(ptr noundef nonnull align 8 dereferenceable(16) %p) #3
  br label %eh.resume

eh.resume:                                        ; preds = %lpad
  %exn = load ptr, ptr %exn.slot, align 8
  %sel = load i32, ptr %ehselector.slot, align 4
  %lpad.val = insertvalue { ptr, i32 } poison, ptr %exn, 0
  %lpad.val6 = insertvalue { ptr, i32 } %lpad.val, i32 %sel, 1
  resume { ptr, i32 } %lpad.val6
}