; Function Attrs: mustprogress uwtable
define hidden noundef ptr @_ZN3smt9theory_bv11mk_bit2boolEP3appj(ptr nocapture noundef nonnull readonly align 8 dereferenceable(1048) %this, ptr noundef %bv, i32 noundef %idx) local_unnamed_addr #3 align 2 personality ptr @__gxx_personality_v0 {
entry:
  %p = alloca %class.parameter, align 8
  %args = alloca [1 x ptr], align 8
  store i32 %idx, ptr %p, align 8
  %_M_index.i.i.i.i.i.i.i.i.i = getelementptr inbounds i8, ptr %p, i64 8
  store i8 0, ptr %_M_index.i.i.i.i.i.i.i.i.i, align 8
  store ptr %bv, ptr %args, align 8
  %m.i = getelementptr inbounds i8, ptr %this, i64 24
  %0 = load ptr, ptr %m.i, align 8
  %m_id.i = getelementptr inbounds i8, ptr %this, i64 8
  %1 = load i32, ptr %m_id.i, align 8
  %call5 = invoke noundef ptr @_ZN11ast_manager6mk_appEiijPK9parameterjPKP4exprP4sort(ptr noundef nonnull align 8 dereferenceable(976) %0, i32 noundef %1, i32 noundef 63, i32 noundef 1, ptr noundef nonnull %p, i32 noundef 1, ptr noundef nonnull %args, ptr noundef null)
          to label %invoke.cont4 unwind label %lpad

invoke.cont4:                                     ; preds = %entry
  call void @_ZN9parameterD1Ev(ptr noundef nonnull align 8 dereferenceable(16) %p) #23
  ret ptr %call5

lpad:                                             ; preds = %entry
  %2 = landingpad { ptr, i32 }
          cleanup
  call void @_ZN9parameterD1Ev(ptr noundef nonnull align 8 dereferenceable(16) %p) #23
  resume { ptr, i32 } %2
}